target datalayout = "e-m:e-p270:32:32-p271:32:32-p272:64:64-i64:64-i128:128-f80:128-n8:16:32:64-S128"
target triple = "x86_64-pc-linux-gnu"

%struct.__loadu_ps = type { <4 x float> }
%struct.__mm_storel_epi64_struct = type { i64 }

; Function Attrs: alwaysinline nounwind uwtable
define available_externally i32 @_mm_cvtsi128_si32(<2 x i64> noundef %0) #2 {
  %2 = alloca <2 x i64>, align 16
  %3 = alloca <4 x i32>, align 16
  store <2 x i64> %0, ptr %2, align 16, !tbaa !12
  call void @llvm.lifetime.start.p0(i64 16, ptr %3) #12
  %4 = load <2 x i64>, ptr %2, align 16, !tbaa !12
  %5 = bitcast <2 x i64> %4 to <4 x i32>
  store <4 x i32> %5, ptr %3, align 16, !tbaa !12
  %6 = load <4 x i32>, ptr %3, align 16, !tbaa !12
  %7 = extractelement <4 x i32> %6, i32 0
  call void @llvm.lifetime.end.p0(i64 16, ptr %3) #12
  ret i32 %7
}

; Function Attrs: alwaysinline nounwind uwtable
define available_externally void @_mm_storel_epi64(ptr noundef %0, <2 x i64> noundef %1) #2 {
  %3 = alloca ptr, align 8
  %4 = alloca <2 x i64>, align 16
  store ptr %0, ptr %3, align 8, !tbaa !3
  store <2 x i64> %1, ptr %4, align 16, !tbaa !12
  %5 = load <2 x i64>, ptr %4, align 16, !tbaa !12
  %6 = extractelement <2 x i64> %5, i32 0
  %7 = load ptr, ptr %3, align 8, !tbaa !3
  %8 = getelementptr inbounds nuw %struct.__mm_storel_epi64_struct, ptr %7, i32 0, i32 0
  store i64 %6, ptr %8, align 1, !tbaa !12
  ret void
}

; Function Attrs: alwaysinline nounwind uwtable
define available_externally <2 x i64> @_mm_packus_epi16(<2 x i64> noundef %0, <2 x i64> noundef %1) #2 {
  %3 = alloca <2 x i64>, align 16
  %4 = alloca <2 x i64>, align 16
  store <2 x i64> %0, ptr %3, align 16, !tbaa !12
  store <2 x i64> %1, ptr %4, align 16, !tbaa !12
  %5 = load <2 x i64>, ptr %3, align 16, !tbaa !12
  %6 = bitcast <2 x i64> %5 to <8 x i16>
  %7 = load <2 x i64>, ptr %4, align 16, !tbaa !12
  %8 = bitcast <2 x i64> %7 to <8 x i16>
  %9 = call <16 x i8> @llvm.x86.sse2.packuswb.128(<8 x i16> %6, <8 x i16> %8)
  %10 = bitcast <16 x i8> %9 to <2 x i64>
  ret <2 x i64> %10
}

; Function Attrs: alwaysinline nounwind uwtable
define available_externally <2 x i64> @_mm_packs_epi32(<2 x i64> noundef %0, <2 x i64> noundef %1) #2 {
  %3 = alloca <2 x i64>, align 16
  %4 = alloca <2 x i64>, align 16
  store <2 x i64> %0, ptr %3, align 16, !tbaa !12
  store <2 x i64> %1, ptr %4, align 16, !tbaa !12
  %5 = load <2 x i64>, ptr %3, align 16, !tbaa !12
  %6 = bitcast <2 x i64> %5 to <4 x i32>
  %7 = load <2 x i64>, ptr %4, align 16, !tbaa !12
  %8 = bitcast <2 x i64> %7 to <4 x i32>
  %9 = call <8 x i16> @llvm.x86.sse2.packssdw.128(<4 x i32> %6, <4 x i32> %8)
  %10 = bitcast <8 x i16> %9 to <2 x i64>
  ret <2 x i64> %10
}

; Function Attrs: alwaysinline nounwind uwtable
define available_externally <2 x i64> @_mm_cvttps_epi32(<4 x float> noundef %0) #2 {
  %2 = alloca <4 x float>, align 16
  store <4 x float> %0, ptr %2, align 16, !tbaa !12
  %3 = load <4 x float>, ptr %2, align 16, !tbaa !12
  %4 = call <4 x i32> @llvm.x86.sse2.cvttps2dq(<4 x float> %3)
  %5 = bitcast <4 x i32> %4 to <2 x i64>
  ret <2 x i64> %5
}

; Function Attrs: alwaysinline nounwind uwtable
define available_externally <4 x float> @_mm_max_ps(<4 x float> noundef %0, <4 x float> noundef %1) #2 {
  %3 = alloca <4 x float>, align 16
  %4 = alloca <4 x float>, align 16
  store <4 x float> %0, ptr %3, align 16, !tbaa !12
  store <4 x float> %1, ptr %4, align 16, !tbaa !12
  %5 = load <4 x float>, ptr %3, align 16, !tbaa !12
  %6 = load <4 x float>, ptr %4, align 16, !tbaa !12
  %7 = call <4 x float> @llvm.x86.sse.max.ps(<4 x float> %5, <4 x float> %6)
  ret <4 x float> %7
}

; Function Attrs: alwaysinline nounwind uwtable
define available_externally <4 x float> @_mm_setzero_ps() #2 {
  %1 = alloca <4 x float>, align 16
  store <4 x float> zeroinitializer, ptr %1, align 16, !tbaa !12
  %2 = load <4 x float>, ptr %1, align 16, !tbaa !12
  ret <4 x float> %2
}

; Function Attrs: alwaysinline nounwind uwtable
define available_externally <4 x float> @_mm_min_ps(<4 x float> noundef %0, <4 x float> noundef %1) #2 {
  %3 = alloca <4 x float>, align 16
  %4 = alloca <4 x float>, align 16
  store <4 x float> %0, ptr %3, align 16, !tbaa !12
  store <4 x float> %1, ptr %4, align 16, !tbaa !12
  %5 = load <4 x float>, ptr %3, align 16, !tbaa !12
  %6 = load <4 x float>, ptr %4, align 16, !tbaa !12
  %7 = call <4 x float> @llvm.x86.sse.min.ps(<4 x float> %5, <4 x float> %6)
  ret <4 x float> %7
}

; Function Attrs: alwaysinline nounwind uwtable
define available_externally <4 x float> @_mm_castsi128_ps(<2 x i64> noundef %0) #2 {
  %2 = alloca <2 x i64>, align 16
  store <2 x i64> %0, ptr %2, align 16, !tbaa !12
  %3 = load <2 x i64>, ptr %2, align 16, !tbaa !12
  %4 = bitcast <2 x i64> %3 to <4 x float>
  ret <4 x float> %4
}

; Function Attrs: alwaysinline nounwind uwtable
define available_externally <2 x i64> @_mm_castps_si128(<4 x float> noundef %0) #2 {
  %2 = alloca <4 x float>, align 16
  store <4 x float> %0, ptr %2, align 16, !tbaa !12
  %3 = load <4 x float>, ptr %2, align 16, !tbaa !12
  %4 = bitcast <4 x float> %3 to <2 x i64>
  ret <2 x i64> %4
}

; Function Attrs: alwaysinline nounwind uwtable
define available_externally <4 x float> @_mm_add_ps(<4 x float> noundef %0, <4 x float> noundef %1) #2 {
  %3 = alloca <4 x float>, align 16
  %4 = alloca <4 x float>, align 16
  store <4 x float> %0, ptr %3, align 16, !tbaa !12
  store <4 x float> %1, ptr %4, align 16, !tbaa !12
  %5 = load <4 x float>, ptr %3, align 16, !tbaa !12
  %6 = load <4 x float>, ptr %4, align 16, !tbaa !12
  %7 = fadd <4 x float> %5, %6
  ret <4 x float> %7
}

; Function Attrs: alwaysinline nounwind uwtable
define available_externally <4 x float> @_mm_loadu_ps(ptr noundef %0) #2 {
  %2 = alloca ptr, align 8
  store ptr %0, ptr %2, align 8, !tbaa !21
  %3 = load ptr, ptr %2, align 8, !tbaa !21
  %4 = getelementptr inbounds nuw %struct.__loadu_ps, ptr %3, i32 0, i32 0
  %5 = load <4 x float>, ptr %4, align 1, !tbaa !12
  ret <4 x float> %5
}

; Function Attrs: nounwind uwtable
define void @stbir__encode_uint8_linear_BGRA(ptr noundef %0, i32 noundef %1, ptr noundef %2) #0 {
  %4 = alloca ptr, align 8
  %5 = alloca i32, align 4
  %6 = alloca ptr, align 8
  %7 = alloca ptr, align 8
  %8 = alloca ptr, align 8
  %9 = alloca ptr, align 8
  %10 = alloca <4 x float>, align 16
  %11 = alloca <4 x float>, align 16
  %12 = alloca <2 x i64>, align 16
  %13 = alloca <4 x float>, align 16
  %14 = alloca <4 x float>, align 16
  %15 = alloca <2 x i64>, align 16
  %16 = alloca <2 x i64>, align 16
  %17 = alloca i32, align 4
  %18 = alloca <4 x float>, align 16
  %19 = alloca <2 x i64>, align 16
  %20 = alloca <4 x float>, align 16
  %21 = alloca <4 x float>, align 16
  %22 = alloca <2 x i64>, align 16
  %23 = alloca <2 x i64>, align 16
  store ptr %0, ptr %4, align 8, !tbaa !3
  store i32 %1, ptr %5, align 4, !tbaa !26
  store ptr %2, ptr %6, align 8, !tbaa !21
  call void @llvm.lifetime.start.p0(i64 8, ptr %7) #12
  %24 = load ptr, ptr %4, align 8, !tbaa !3
  store ptr %24, ptr %7, align 8, !tbaa !9
  call void @llvm.lifetime.start.p0(i64 8, ptr %8) #12
  %25 = load ptr, ptr %7, align 8, !tbaa !9
  %26 = load i32, ptr %5, align 4, !tbaa !26
  %27 = sext i32 %26 to i64
  %28 = getelementptr inbounds i8, ptr %25, i64 %27
  store ptr %28, ptr %8, align 8, !tbaa !9
  %29 = load i32, ptr %5, align 4, !tbaa !26
  %30 = icmp sge i32 %29, 8
  br i1 %30, label %31, label %103

31:                                               ; preds = %3
  call void @llvm.lifetime.start.p0(i64 8, ptr %9) #12
  %32 = load ptr, ptr %6, align 8, !tbaa !21
  %33 = load i32, ptr %5, align 4, !tbaa !26
  %34 = sext i32 %33 to i64
  %35 = getelementptr inbounds float, ptr %32, i64 %34
  %36 = getelementptr inbounds float, ptr %35, i64 -8
  store ptr %36, ptr %9, align 8, !tbaa !21
  %37 = load ptr, ptr %8, align 8, !tbaa !9
  %38 = getelementptr inbounds i8, ptr %37, i64 -8
  store ptr %38, ptr %8, align 8, !tbaa !9
  br label %39

39:                                               ; preds = %101, %99, %31
  call void @llvm.lifetime.start.p0(i64 16, ptr %10) #12
  call void @llvm.lifetime.start.p0(i64 16, ptr %11) #12
  call void @llvm.lifetime.start.p0(i64 16, ptr %12) #12
  %40 = load ptr, ptr %6, align 8, !tbaa !21
  call void asm sideeffect "", "r,~{dirflag},~{fpsr},~{flags}"(ptr %40) #12, !srcloc !246
  %41 = load ptr, ptr %6, align 8, !tbaa !21
  %42 = call <4 x float> @_mm_loadu_ps(ptr noundef %41)
  %43 = call <4 x float> @_mm_add_ps(<4 x float> noundef splat (float 5.000000e-01), <4 x float> noundef %42)
  store <4 x float> %43, ptr %10, align 16, !tbaa !12
  %44 = load ptr, ptr %6, align 8, !tbaa !21
  %45 = getelementptr inbounds float, ptr %44, i64 4
  %46 = call <4 x float> @_mm_loadu_ps(ptr noundef %45)
  %47 = call <4 x float> @_mm_add_ps(<4 x float> noundef splat (float 5.000000e-01), <4 x float> noundef %46)
  store <4 x float> %47, ptr %11, align 16, !tbaa !12
  %48 = load <4 x float>, ptr %10, align 16, !tbaa !12
  %49 = call <2 x i64> @_mm_castps_si128(<4 x float> noundef %48)
  %50 = bitcast <2 x i64> %49 to <4 x i32>
  %51 = shufflevector <4 x i32> %50, <4 x i32> poison, <4 x i32> <i32 2, i32 1, i32 0, i32 3>
  %52 = bitcast <4 x i32> %51 to <2 x i64>
  %53 = call <4 x float> @_mm_castsi128_ps(<2 x i64> noundef %52)
  store <4 x float> %53, ptr %10, align 16, !tbaa !12
  %54 = load <4 x float>, ptr %11, align 16, !tbaa !12
  %55 = call <2 x i64> @_mm_castps_si128(<4 x float> noundef %54)
  %56 = bitcast <2 x i64> %55 to <4 x i32>
  %57 = shufflevector <4 x i32> %56, <4 x i32> poison, <4 x i32> <i32 2, i32 1, i32 0, i32 3>
  %58 = bitcast <4 x i32> %57 to <2 x i64>
  %59 = call <4 x float> @_mm_castsi128_ps(<2 x i64> noundef %58)
  store <4 x float> %59, ptr %11, align 16, !tbaa !12
  call void @llvm.lifetime.start.p0(i64 16, ptr %13) #12
  call void @llvm.lifetime.start.p0(i64 16, ptr %14) #12
  call void @llvm.lifetime.start.p0(i64 16, ptr %15) #12
  call void @llvm.lifetime.start.p0(i64 16, ptr %16) #12
  %60 = load <4 x float>, ptr %10, align 16, !tbaa !12
  %61 = call <4 x float> @_mm_min_ps(<4 x float> noundef %60, <4 x float> noundef splat (float 2.550000e+02))
  store <4 x float> %61, ptr %13, align 16, !tbaa !12
  %62 = load <4 x float>, ptr %11, align 16, !tbaa !12
  %63 = call <4 x float> @_mm_min_ps(<4 x float> noundef %62, <4 x float> noundef splat (float 2.550000e+02))
  store <4 x float> %63, ptr %14, align 16, !tbaa !12
  %64 = load <4 x float>, ptr %13, align 16, !tbaa !12
  %65 = call <4 x float> @_mm_setzero_ps()
  %66 = call <4 x float> @_mm_max_ps(<4 x float> noundef %64, <4 x float> noundef %65)
  store <4 x float> %66, ptr %13, align 16, !tbaa !12
  %67 = load <4 x float>, ptr %14, align 16, !tbaa !12
  %68 = call <4 x float> @_mm_setzero_ps()
  %69 = call <4 x float> @_mm_max_ps(<4 x float> noundef %67, <4 x float> noundef %68)
  store <4 x float> %69, ptr %14, align 16, !tbaa !12
  %70 = load <4 x float>, ptr %13, align 16, !tbaa !12
  %71 = call <2 x i64> @_mm_cvttps_epi32(<4 x float> noundef %70)
  store <2 x i64> %71, ptr %15, align 16, !tbaa !12
  %72 = load <4 x float>, ptr %14, align 16, !tbaa !12
  %73 = call <2 x i64> @_mm_cvttps_epi32(<4 x float> noundef %72)
  store <2 x i64> %73, ptr %16, align 16, !tbaa !12
  %74 = load <2 x i64>, ptr %15, align 16, !tbaa !12
  %75 = load <2 x i64>, ptr %16, align 16, !tbaa !12
  %76 = call <2 x i64> @_mm_packs_epi32(<2 x i64> noundef %74, <2 x i64> noundef %75)
  store <2 x i64> %76, ptr %15, align 16, !tbaa !12
  %77 = load <2 x i64>, ptr %15, align 16, !tbaa !12
  %78 = load <2 x i64>, ptr %15, align 16, !tbaa !12
  %79 = call <2 x i64> @_mm_packus_epi16(<2 x i64> noundef %77, <2 x i64> noundef %78)
  store <2 x i64> %79, ptr %12, align 16, !tbaa !12
  call void @llvm.lifetime.end.p0(i64 16, ptr %16) #12
  call void @llvm.lifetime.end.p0(i64 16, ptr %15) #12
  call void @llvm.lifetime.end.p0(i64 16, ptr %14) #12
  call void @llvm.lifetime.end.p0(i64 16, ptr %13) #12
  %80 = load ptr, ptr %7, align 8, !tbaa !9
  %81 = load <2 x i64>, ptr %12, align 16, !tbaa !12
  call void @_mm_storel_epi64(ptr noundef %80, <2 x i64> noundef %81)
  %82 = load ptr, ptr %6, align 8, !tbaa !21
  %83 = getelementptr inbounds float, ptr %82, i64 8
  store ptr %83, ptr %6, align 8, !tbaa !21
  %84 = load ptr, ptr %7, align 8, !tbaa !9
  %85 = getelementptr inbounds i8, ptr %84, i64 8
  store ptr %85, ptr %7, align 8, !tbaa !9
  %86 = load ptr, ptr %7, align 8, !tbaa !9
  %87 = load ptr, ptr %8, align 8, !tbaa !9
  %88 = icmp ule ptr %86, %87
  br i1 %88, label %89, label %90

89:                                               ; preds = %39
  store i32 3, ptr %17, align 4
  br label %99, !llvm.loop !247

90:                                               ; preds = %39
  %91 = load ptr, ptr %7, align 8, !tbaa !9
  %92 = load ptr, ptr %8, align 8, !tbaa !9
  %93 = getelementptr inbounds i8, ptr %92, i64 8
  %94 = icmp eq ptr %91, %93
  br i1 %94, label %95, label %96

95:                                               ; preds = %90
  store i32 2, ptr %17, align 4
  br label %99

96:                                               ; preds = %90
  %97 = load ptr, ptr %8, align 8, !tbaa !9
  store ptr %97, ptr %7, align 8, !tbaa !9
  %98 = load ptr, ptr %9, align 8, !tbaa !21
  store ptr %98, ptr %6, align 8, !tbaa !21
  store i32 0, ptr %17, align 4
  br label %99

99:                                               ; preds = %96, %95, %89
  call void @llvm.lifetime.end.p0(i64 16, ptr %12) #12
  call void @llvm.lifetime.end.p0(i64 16, ptr %11) #12
  call void @llvm.lifetime.end.p0(i64 16, ptr %10) #12
  %100 = load i32, ptr %17, align 4
  switch i32 %100, label %156 [
    i32 0, label %101
    i32 3, label %39
    i32 2, label %102
  ]

101:                                              ; preds = %99
  br label %39, !llvm.loop !247

102:                                              ; preds = %99
  store i32 1, ptr %17, align 4
  call void @llvm.lifetime.end.p0(i64 8, ptr %9) #12
  br label %153

103:                                              ; preds = %3
  %104 = load ptr, ptr %7, align 8, !tbaa !9
  %105 = getelementptr inbounds i8, ptr %104, i64 4
  store ptr %105, ptr %7, align 8, !tbaa !9
  br label %106

106:                                              ; preds = %110, %103
  %107 = load ptr, ptr %7, align 8, !tbaa !9
  %108 = load ptr, ptr %8, align 8, !tbaa !9
  %109 = icmp ule ptr %107, %108
  br i1 %109, label %110, label %150

110:                                              ; preds = %106
  call void @llvm.lifetime.start.p0(i64 16, ptr %18) #12
  call void @llvm.lifetime.start.p0(i64 16, ptr %19) #12
  %111 = load ptr, ptr %6, align 8, !tbaa !21
  call void asm sideeffect "", "r,~{dirflag},~{fpsr},~{flags}"(ptr %111) #12, !srcloc !248
  %112 = load ptr, ptr %6, align 8, !tbaa !21
  %113 = call <4 x float> @_mm_loadu_ps(ptr noundef %112)
  store <4 x float> %113, ptr %18, align 16, !tbaa !12
  %114 = load <4 x float>, ptr %18, align 16, !tbaa !12
  %115 = call <4 x float> @_mm_add_ps(<4 x float> noundef splat (float 5.000000e-01), <4 x float> noundef %114)
  store <4 x float> %115, ptr %18, align 16, !tbaa !12
  %116 = load <4 x float>, ptr %18, align 16, !tbaa !12
  %117 = call <2 x i64> @_mm_castps_si128(<4 x float> noundef %116)
  %118 = bitcast <2 x i64> %117 to <4 x i32>
  %119 = shufflevector <4 x i32> %118, <4 x i32> poison, <4 x i32> <i32 2, i32 1, i32 0, i32 3>
  %120 = bitcast <4 x i32> %119 to <2 x i64>
  %121 = call <4 x float> @_mm_castsi128_ps(<2 x i64> noundef %120)
  store <4 x float> %121, ptr %18, align 16, !tbaa !12
  call void @llvm.lifetime.start.p0(i64 16, ptr %20) #12
  call void @llvm.lifetime.start.p0(i64 16, ptr %21) #12
  call void @llvm.lifetime.start.p0(i64 16, ptr %22) #12
  call void @llvm.lifetime.start.p0(i64 16, ptr %23) #12
  %122 = load <4 x float>, ptr %18, align 16, !tbaa !12
  %123 = call <4 x float> @_mm_min_ps(<4 x float> noundef %122, <4 x float> noundef splat (float 2.550000e+02))
  store <4 x float> %123, ptr %20, align 16, !tbaa !12
  %124 = load <4 x float>, ptr %18, align 16, !tbaa !12
  %125 = call <4 x float> @_mm_min_ps(<4 x float> noundef %124, <4 x float> noundef splat (float 2.550000e+02))
  store <4 x float> %125, ptr %21, align 16, !tbaa !12
  %126 = load <4 x float>, ptr %20, align 16, !tbaa !12
  %127 = call <4 x float> @_mm_setzero_ps()
  %128 = call <4 x float> @_mm_max_ps(<4 x float> noundef %126, <4 x float> noundef %127)
  store <4 x float> %128, ptr %20, align 16, !tbaa !12
  %129 = load <4 x float>, ptr %21, align 16, !tbaa !12
  %130 = call <4 x float> @_mm_setzero_ps()
  %131 = call <4 x float> @_mm_max_ps(<4 x float> noundef %129, <4 x float> noundef %130)
  store <4 x float> %131, ptr %21, align 16, !tbaa !12
  %132 = load <4 x float>, ptr %20, align 16, !tbaa !12
  %133 = call <2 x i64> @_mm_cvttps_epi32(<4 x float> noundef %132)
  store <2 x i64> %133, ptr %22, align 16, !tbaa !12
  %134 = load <4 x float>, ptr %21, align 16, !tbaa !12
  %135 = call <2 x i64> @_mm_cvttps_epi32(<4 x float> noundef %134)
  store <2 x i64> %135, ptr %23, align 16, !tbaa !12
  %136 = load <2 x i64>, ptr %22, align 16, !tbaa !12
  %137 = load <2 x i64>, ptr %23, align 16, !tbaa !12
  %138 = call <2 x i64> @_mm_packs_epi32(<2 x i64> noundef %136, <2 x i64> noundef %137)
  store <2 x i64> %138, ptr %22, align 16, !tbaa !12
  %139 = load <2 x i64>, ptr %22, align 16, !tbaa !12
  %140 = load <2 x i64>, ptr %22, align 16, !tbaa !12
  %141 = call <2 x i64> @_mm_packus_epi16(<2 x i64> noundef %139, <2 x i64> noundef %140)
  store <2 x i64> %141, ptr %19, align 16, !tbaa !12
  call void @llvm.lifetime.end.p0(i64 16, ptr %23) #12
  call void @llvm.lifetime.end.p0(i64 16, ptr %22) #12
  call void @llvm.lifetime.end.p0(i64 16, ptr %21) #12
  call void @llvm.lifetime.end.p0(i64 16, ptr %20) #12
  %142 = load <2 x i64>, ptr %19, align 16, !tbaa !12
  %143 = call i32 @_mm_cvtsi128_si32(<2 x i64> noundef %142)
  %144 = load ptr, ptr %7, align 8, !tbaa !9
  %145 = getelementptr inbounds i8, ptr %144, i64 -4
  store i32 %143, ptr %145, align 4, !tbaa !26
  %146 = load ptr, ptr %7, align 8, !tbaa !9
  %147 = getelementptr inbounds i8, ptr %146, i64 4
  store ptr %147, ptr %7, align 8, !tbaa !9
  %148 = load ptr, ptr %6, align 8, !tbaa !21
  %149 = getelementptr inbounds float, ptr %148, i64 4
  store ptr %149, ptr %6, align 8, !tbaa !21
  call void @llvm.lifetime.end.p0(i64 16, ptr %19) #12
  call void @llvm.lifetime.end.p0(i64 16, ptr %18) #12
  br label %106, !llvm.loop !249

150:                                              ; preds = %106
  %151 = load ptr, ptr %7, align 8, !tbaa !9
  %152 = getelementptr inbounds i8, ptr %151, i64 -4
  store ptr %152, ptr %7, align 8, !tbaa !9
  store i32 0, ptr %17, align 4
  br label %153

153:                                              ; preds = %150, %102
  call void @llvm.lifetime.end.p0(i64 8, ptr %8) #12
  call void @llvm.lifetime.end.p0(i64 8, ptr %7) #12
  %154 = load i32, ptr %17, align 4
  switch i32 %154, label %156 [
    i32 0, label %155
    i32 1, label %155
  ]

155:                                              ; preds = %153, %153
  ret void

156:                                              ; preds = %153, %99
  unreachable
}