; Function Attrs: nounwind uwtable
define void @stbir__encode_uint8_linear_BGRA(ptr noundef writeonly captures(address) %0, i32 noundef %1, ptr noundef %2) #0 {
  %4 = sext i32 %1 to i64
  %5 = getelementptr inbounds i8, ptr %0, i64 %4
  %6 = icmp sgt i32 %1, 7
  br i1 %6, label %7, label %.preheader

.preheader:                                       ; preds = %3
  %.not66 = icmp slt i32 %1, 4
  br i1 %.not66, label %.loopexit, label %.lr.ph.preheader

.lr.ph.preheader:                                 ; preds = %.preheader
  %.25665 = getelementptr inbounds nuw i8, ptr %0, i64 4
  br label %.lr.ph

7:                                                ; preds = %3
  %8 = getelementptr inbounds nuw float, ptr %2, i64 %4
  %9 = getelementptr inbounds i8, ptr %8, i64 -32
  %10 = getelementptr inbounds i8, ptr %5, i64 -8
  br label %11

11:                                               ; preds = %11, %7
  %.054 = phi ptr [ %0, %7 ], [ %.155, %11 ]
  %.0 = phi ptr [ %2, %7 ], [ %.1, %11 ]
  tail call void asm sideeffect "", "r,~{dirflag},~{fpsr},~{flags}"(ptr %.0) #24, !srcloc !215
  %12 = load <4 x float>, ptr %.0, align 1, !tbaa !4
  %13 = fadd <4 x float> %12, splat (float 5.000000e-01)
  %14 = getelementptr inbounds nuw i8, ptr %.0, i64 16
  %15 = load <4 x float>, ptr %14, align 1, !tbaa !4
  %16 = fadd <4 x float> %15, splat (float 5.000000e-01)
  %17 = shufflevector <4 x float> %13, <4 x float> poison, <4 x i32> <i32 2, i32 1, i32 0, i32 3>
  %18 = shufflevector <4 x float> %16, <4 x float> poison, <4 x i32> <i32 2, i32 1, i32 0, i32 3>
  %19 = tail call <4 x float> @llvm.x86.sse.min.ps(<4 x float> %17, <4 x float> splat (float 2.550000e+02))
  %20 = tail call <4 x float> @llvm.x86.sse.min.ps(<4 x float> %18, <4 x float> splat (float 2.550000e+02))
  %21 = tail call <4 x float> @llvm.x86.sse.max.ps(<4 x float> %19, <4 x float> zeroinitializer)
  %22 = tail call <4 x float> @llvm.x86.sse.max.ps(<4 x float> %20, <4 x float> zeroinitializer)
  %23 = tail call <4 x i32> @llvm.x86.sse2.cvttps2dq(<4 x float> %21)
  %24 = tail call <4 x i32> @llvm.x86.sse2.cvttps2dq(<4 x float> %22)
  %25 = tail call <8 x i16> @llvm.x86.sse2.packssdw.128(<4 x i32> %23, <4 x i32> %24)
  %26 = tail call <16 x i8> @llvm.x86.sse2.packuswb.128(<8 x i16> %25, <8 x i16> poison)
  %27 = bitcast <16 x i8> %26 to <2 x i64>
  %28 = extractelement <2 x i64> %27, i64 0
  store i64 %28, ptr %.054, align 1, !tbaa !4
  %29 = getelementptr inbounds nuw i8, ptr %.0, i64 32
  %30 = getelementptr inbounds nuw i8, ptr %.054, i64 8
  %.not61 = icmp ugt ptr %30, %10
  %31 = icmp eq ptr %30, %5
  %.62 = select i1 %31, ptr %30, ptr %10
  %.63 = select i1 %31, ptr %29, ptr %9
  %.155 = select i1 %.not61, ptr %.62, ptr %30
  %.1 = select i1 %.not61, ptr %.63, ptr %29
  br i1 %31, label %.loopexit, label %11

.lr.ph:                                           ; preds = %.lr.ph.preheader, %.lr.ph
  %.25669 = phi ptr [ %.256, %.lr.ph ], [ %.25665, %.lr.ph.preheader ]
  %.268 = phi ptr [ %42, %.lr.ph ], [ %2, %.lr.ph.preheader ]
  %.pn67 = phi ptr [ %.25669, %.lr.ph ], [ %0, %.lr.ph.preheader ]
  tail call void asm sideeffect "", "r,~{dirflag},~{fpsr},~{flags}"(ptr %.268) #24, !srcloc !216
  %32 = load <4 x float>, ptr %.268, align 1, !tbaa !4
  %33 = fadd <4 x float> %32, splat (float 5.000000e-01)
  %34 = shufflevector <4 x float> %33, <4 x float> poison, <4 x i32> <i32 2, i32 1, i32 0, i32 3>
  %35 = tail call <4 x float> @llvm.x86.sse.min.ps(<4 x float> %34, <4 x float> splat (float 2.550000e+02))
  %36 = tail call <4 x float> @llvm.x86.sse.max.ps(<4 x float> %35, <4 x float> zeroinitializer)
  %37 = tail call <4 x i32> @llvm.x86.sse2.cvttps2dq(<4 x float> %36)
  %38 = tail call <8 x i16> @llvm.x86.sse2.packssdw.128(<4 x i32> %37, <4 x i32> poison)
  %39 = tail call <16 x i8> @llvm.x86.sse2.packuswb.128(<8 x i16> %38, <8 x i16> poison)
  %40 = bitcast <16 x i8> %39 to <4 x i32>
  %41 = extractelement <4 x i32> %40, i64 0
  store i32 %41, ptr %.pn67, align 4, !tbaa !18
  %42 = getelementptr inbounds nuw i8, ptr %.268, i64 16
  %.256 = getelementptr inbounds nuw i8, ptr %.25669, i64 4
  %.not = icmp ugt ptr %.256, %5
  br i1 %.not, label %.loopexit, label %.lr.ph, !llvm.loop !217

.loopexit:                                        ; preds = %.lr.ph, %11, %.preheader
  ret void
}